target datalayout = "e-m:e-p270:32:32-p271:32:32-p272:64:64-i64:64-i128:128-f80:128-n8:16:32:64-S128"
target triple = "x86_64-pc-linux-gnu"

%struct.Aig_Obj_t_ = type { %union.anon, ptr, ptr, i64, i32, i32, %union.anon.0 }
%union.anon = type { ptr }
%union.anon.0 = type { ptr }
%struct.Aig_Man_t_ = type { ptr, ptr, ptr, ptr, ptr, ptr, ptr, %struct.Aig_Obj_t_, i32, i32, i32, i32, i32, i32, [7 x i32], i32, ptr, i32, ptr, i32, ptr, i32, i32, i32, ptr, i32, i32, i32, i32, i32, ptr, ptr, i32, ptr, ptr, i32, ptr, ptr, i32, i32, i32, ptr, ptr, ptr, ptr, ptr, ptr, ptr, ptr, ptr, ptr, ptr, ptr, ptr, ptr, i32, ptr, ptr, ptr, ptr, i32, i64, i64, i64, ptr, ptr }
%struct.Vec_Ptr_t_ = type { i32, i32, ptr }

@.str.5 = private unnamed_addr constant [52 x i8] c"node %d participates in more than one choice class\0A\00", align 1
@.str.6 = private unnamed_addr constant [40 x i8] c"node %d and repr %d have diff supports\0A\00", align 1
@.str.7 = private unnamed_addr constant [70 x i8] c"repr %d has final node %d participates in more than one choice class\0A\00", align 1
@.str.8 = private unnamed_addr constant [43 x i8] c"node %d belonging to choice has fanout %d\0A\00", align 1
@.str.9 = private unnamed_addr constant [51 x i8] c"node %d has representative %d and fanout count %d\0A\00", align 1
@.str.10 = private unnamed_addr constant [39 x i8] c"Verification of choice AIG succeeded.\0A\00", align 1
@.str.11 = private unnamed_addr constant [36 x i8] c"Verification of choice AIG FAILED.\0A\00", align 1

; Function Attrs: nounwind uwtable
define internal i32 @Aig_ObjId(ptr noundef %0) #0 {
  %2 = alloca ptr, align 8
  store ptr %0, ptr %2, align 8
  %3 = load ptr, ptr %2, align 8
  %4 = getelementptr inbounds %struct.Aig_Obj_t_, ptr %3, i32 0, i32 5
  %5 = load i32, ptr %4, align 4
  ret i32 %5
}

; Function Attrs: nounwind uwtable
define i32 @Dch_ObjCheckSuppRed(ptr noundef %0, ptr noundef %1, ptr noundef %2) #0 {
  %4 = alloca i32, align 4
  %5 = alloca ptr, align 8
  %6 = alloca ptr, align 8
  %7 = alloca ptr, align 8
  store ptr %0, ptr %5, align 8
  store ptr %1, ptr %6, align 8
  store ptr %2, ptr %7, align 8
  %8 = load ptr, ptr %5, align 8
  call void @Aig_ManIncrementTravId(ptr noundef %8)
  %9 = load ptr, ptr %5, align 8
  %10 = load ptr, ptr %7, align 8
  %11 = call i32 @Dch_ObjMarkTfi_rec(ptr noundef %9, ptr noundef %10)
  %12 = load ptr, ptr %5, align 8
  call void @Aig_ManIncrementTravId(ptr noundef %12)
  %13 = load ptr, ptr %5, align 8
  %14 = load ptr, ptr %6, align 8
  %15 = call i32 @Dch_ObjMarkTfi_rec(ptr noundef %13, ptr noundef %14)
  %16 = icmp ne i32 %15, 0
  br i1 %16, label %17, label %18

17:                                               ; preds = %3
  store i32 1, ptr %4, align 4
  br label %26

18:                                               ; preds = %3
  %19 = load ptr, ptr %5, align 8
  call void @Aig_ManIncrementTravId(ptr noundef %19)
  %20 = load ptr, ptr %5, align 8
  %21 = load ptr, ptr %7, align 8
  %22 = call i32 @Dch_ObjMarkTfi_rec(ptr noundef %20, ptr noundef %21)
  %23 = icmp ne i32 %22, 0
  br i1 %23, label %24, label %25

24:                                               ; preds = %18
  store i32 1, ptr %4, align 4
  br label %26

25:                                               ; preds = %18
  store i32 0, ptr %4, align 4
  br label %26

26:                                               ; preds = %25, %24, %17
  %27 = load i32, ptr %4, align 4
  ret i32 %27
}

; Function Attrs: nounwind uwtable
define internal i32 @Aig_ObjIsNode(ptr noundef %0) #0 {
  %2 = alloca ptr, align 8
  store ptr %0, ptr %2, align 8
  %3 = load ptr, ptr %2, align 8
  %4 = getelementptr inbounds %struct.Aig_Obj_t_, ptr %3, i32 0, i32 3
  %5 = load i64, ptr %4, align 8
  %6 = and i64 %5, 7
  %7 = trunc i64 %6 to i32
  %8 = icmp eq i32 %7, 5
  br i1 %8, label %16, label %9

9:                                                ; preds = %1
  %10 = load ptr, ptr %2, align 8
  %11 = getelementptr inbounds %struct.Aig_Obj_t_, ptr %10, i32 0, i32 3
  %12 = load i64, ptr %11, align 8
  %13 = and i64 %12, 7
  %14 = trunc i64 %13 to i32
  %15 = icmp eq i32 %14, 6
  br label %16

16:                                               ; preds = %9, %1
  %17 = phi i1 [ true, %1 ], [ %15, %9 ]
  %18 = zext i1 %17 to i32
  ret i32 %18
}

; Function Attrs: nounwind uwtable
define internal ptr @Vec_PtrEntry(ptr noundef %0, i32 noundef %1) #0 {
  %3 = alloca ptr, align 8
  %4 = alloca i32, align 4
  store ptr %0, ptr %3, align 8
  store i32 %1, ptr %4, align 4
  %5 = load ptr, ptr %3, align 8
  %6 = getelementptr inbounds %struct.Vec_Ptr_t_, ptr %5, i32 0, i32 2
  %7 = load ptr, ptr %6, align 8
  %8 = load i32, ptr %4, align 4
  %9 = sext i32 %8 to i64
  %10 = getelementptr inbounds ptr, ptr %7, i64 %9
  %11 = load ptr, ptr %10, align 8
  ret ptr %11
}

; Function Attrs: nounwind uwtable
define internal i32 @Vec_PtrSize(ptr noundef %0) #0 {
  %2 = alloca ptr, align 8
  store ptr %0, ptr %2, align 8
  %3 = load ptr, ptr %2, align 8
  %4 = getelementptr inbounds %struct.Vec_Ptr_t_, ptr %3, i32 0, i32 1
  %5 = load i32, ptr %4, align 4
  ret i32 %5
}

; Function Attrs: nounwind uwtable
define void @Dch_CheckChoices(ptr noundef %0, i32 noundef %1) #0 {
  %3 = alloca ptr, align 8
  %4 = alloca i32, align 4
  %5 = alloca ptr, align 8
  %6 = alloca i32, align 4
  %7 = alloca i32, align 4
  store ptr %0, ptr %3, align 8
  store i32 %1, ptr %4, align 4
  store i32 0, ptr %7, align 4
  %8 = load ptr, ptr %3, align 8
  call void @Aig_ManCleanMarkA(ptr noundef %8)
  store i32 0, ptr %6, align 4
  br label %9

9:                                                ; preds = %188, %2
  %10 = load i32, ptr %6, align 4
  %11 = load ptr, ptr %3, align 8
  %12 = getelementptr inbounds %struct.Aig_Man_t_, ptr %11, i32 0, i32 4
  %13 = load ptr, ptr %12, align 8
  %14 = call i32 @Vec_PtrSize(ptr noundef %13)
  %15 = icmp slt i32 %10, %14
  br i1 %15, label %16, label %22

16:                                               ; preds = %9
  %17 = load ptr, ptr %3, align 8
  %18 = getelementptr inbounds %struct.Aig_Man_t_, ptr %17, i32 0, i32 4
  %19 = load ptr, ptr %18, align 8
  %20 = load i32, ptr %6, align 4
  %21 = call ptr @Vec_PtrEntry(ptr noundef %19, i32 noundef %20)
  store ptr %21, ptr %5, align 8
  br label %22

22:                                               ; preds = %16, %9
  %23 = phi i1 [ false, %9 ], [ true, %16 ]
  br i1 %23, label %24, label %191

24:                                               ; preds = %22
  %25 = load ptr, ptr %5, align 8
  %26 = icmp eq ptr %25, null
  br i1 %26, label %31, label %27

27:                                               ; preds = %24
  %28 = load ptr, ptr %5, align 8
  %29 = call i32 @Aig_ObjIsNode(ptr noundef %28)
  %30 = icmp ne i32 %29, 0
  br i1 %30, label %32, label %31

31:                                               ; preds = %27, %24
  br label %187

32:                                               ; preds = %27
  %33 = load ptr, ptr %3, align 8
  %34 = getelementptr inbounds %struct.Aig_Man_t_, ptr %33, i32 0, i32 30
  %35 = load ptr, ptr %34, align 8
  %36 = load i32, ptr %6, align 4
  %37 = sext i32 %36 to i64
  %38 = getelementptr inbounds ptr, ptr %35, i64 %37
  %39 = load ptr, ptr %38, align 8
  %40 = icmp ne ptr %39, null
  br i1 %40, label %41, label %143

41:                                               ; preds = %32
  %42 = load ptr, ptr %5, align 8
  %43 = getelementptr inbounds %struct.Aig_Obj_t_, ptr %42, i32 0, i32 3
  %44 = load i64, ptr %43, align 8
  %45 = lshr i64 %44, 4
  %46 = and i64 %45, 1
  %47 = trunc i64 %46 to i32
  %48 = icmp eq i32 %47, 1
  br i1 %48, label %49, label %52

49:                                               ; preds = %41
  %50 = load i32, ptr %6, align 4
  %51 = call i32 (ptr, ...) @printf(ptr noundef @.str.5, i32 noundef %50)
  store i32 1, ptr %7, align 4
  br label %52

52:                                               ; preds = %49, %41
  %53 = load ptr, ptr %5, align 8
  %54 = getelementptr inbounds %struct.Aig_Obj_t_, ptr %53, i32 0, i32 3
  %55 = load i64, ptr %54, align 8
  %56 = and i64 %55, -17
  %57 = or i64 %56, 16
  store i64 %57, ptr %54, align 8
  %58 = load i32, ptr %4, align 4
  %59 = icmp ne i32 %58, 0
  br i1 %59, label %60, label %86

60:                                               ; preds = %52
  %61 = load ptr, ptr %3, align 8
  %62 = load ptr, ptr %5, align 8
  %63 = load ptr, ptr %3, align 8
  %64 = getelementptr inbounds %struct.Aig_Man_t_, ptr %63, i32 0, i32 30
  %65 = load ptr, ptr %64, align 8
  %66 = load i32, ptr %6, align 4
  %67 = sext i32 %66 to i64
  %68 = getelementptr inbounds ptr, ptr %65, i64 %67
  %69 = load ptr, ptr %68, align 8
  %70 = call i32 @Dch_ObjCheckSuppRed(ptr noundef %61, ptr noundef %62, ptr noundef %69)
  %71 = icmp ne i32 %70, 0
  br i1 %71, label %72, label %86

72:                                               ; preds = %60
  %73 = load ptr, ptr %5, align 8
  %74 = getelementptr inbounds %struct.Aig_Obj_t_, ptr %73, i32 0, i32 5
  %75 = load i32, ptr %74, align 4
  %76 = load ptr, ptr %3, align 8
  %77 = getelementptr inbounds %struct.Aig_Man_t_, ptr %76, i32 0, i32 30
  %78 = load ptr, ptr %77, align 8
  %79 = load i32, ptr %6, align 4
  %80 = sext i32 %79 to i64
  %81 = getelementptr inbounds ptr, ptr %78, i64 %80
  %82 = load ptr, ptr %81, align 8
  %83 = getelementptr inbounds %struct.Aig_Obj_t_, ptr %82, i32 0, i32 5
  %84 = load i32, ptr %83, align 4
  %85 = call i32 (ptr, ...) @printf(ptr noundef @.str.6, i32 noundef %75, i32 noundef %84)
  br label %86

86:                                               ; preds = %72, %60, %52
  %87 = load ptr, ptr %3, align 8
  %88 = getelementptr inbounds %struct.Aig_Man_t_, ptr %87, i32 0, i32 30
  %89 = load ptr, ptr %88, align 8
  %90 = load i32, ptr %6, align 4
  %91 = sext i32 %90 to i64
  %92 = getelementptr inbounds ptr, ptr %89, i64 %91
  %93 = load ptr, ptr %92, align 8
  store ptr %93, ptr %5, align 8
  %94 = load ptr, ptr %3, align 8
  %95 = getelementptr inbounds %struct.Aig_Man_t_, ptr %94, i32 0, i32 30
  %96 = load ptr, ptr %95, align 8
  %97 = load ptr, ptr %5, align 8
  %98 = call i32 @Aig_ObjId(ptr noundef %97)
  %99 = sext i32 %98 to i64
  %100 = getelementptr inbounds ptr, ptr %96, i64 %99
  %101 = load ptr, ptr %100, align 8
  %102 = icmp eq ptr %101, null
  br i1 %102, label %103, label %123

103:                                              ; preds = %86
  %104 = load ptr, ptr %5, align 8
  %105 = getelementptr inbounds %struct.Aig_Obj_t_, ptr %104, i32 0, i32 3
  %106 = load i64, ptr %105, align 8
  %107 = lshr i64 %106, 4
  %108 = and i64 %107, 1
  %109 = trunc i64 %108 to i32
  %110 = icmp eq i32 %109, 1
  br i1 %110, label %111, label %117

111:                                              ; preds = %103
  %112 = load i32, ptr %6, align 4
  %113 = load ptr, ptr %5, align 8
  %114 = getelementptr inbounds %struct.Aig_Obj_t_, ptr %113, i32 0, i32 5
  %115 = load i32, ptr %114, align 4
  %116 = call i32 (ptr, ...) @printf(ptr noundef @.str.7, i32 noundef %112, i32 noundef %115)
  store i32 1, ptr %7, align 4
  br label %117

117:                                              ; preds = %111, %103
  %118 = load ptr, ptr %5, align 8
  %119 = getelementptr inbounds %struct.Aig_Obj_t_, ptr %118, i32 0, i32 3
  %120 = load i64, ptr %119, align 8
  %121 = and i64 %120, -17
  %122 = or i64 %121, 16
  store i64 %122, ptr %119, align 8
  br label %123

123:                                              ; preds = %117, %86
  %124 = load ptr, ptr %5, align 8
  %125 = getelementptr inbounds %struct.Aig_Obj_t_, ptr %124, i32 0, i32 3
  %126 = load i64, ptr %125, align 8
  %127 = lshr i64 %126, 6
  %128 = and i64 %127, 67108863
  %129 = trunc i64 %128 to i32
  %130 = icmp sgt i32 %129, 0
  br i1 %130, label %131, label %142

131:                                              ; preds = %123
  %132 = load ptr, ptr %5, align 8
  %133 = getelementptr inbounds %struct.Aig_Obj_t_, ptr %132, i32 0, i32 5
  %134 = load i32, ptr %133, align 4
  %135 = load ptr, ptr %5, align 8
  %136 = getelementptr inbounds %struct.Aig_Obj_t_, ptr %135, i32 0, i32 3
  %137 = load i64, ptr %136, align 8
  %138 = lshr i64 %137, 6
  %139 = and i64 %138, 67108863
  %140 = trunc i64 %139 to i32
  %141 = call i32 (ptr, ...) @printf(ptr noundef @.str.8, i32 noundef %134, i32 noundef %140)
  br label %142

142:                                              ; preds = %131, %123
  br label %143

143:                                              ; preds = %142, %32
  %144 = load ptr, ptr %3, align 8
  %145 = getelementptr inbounds %struct.Aig_Man_t_, ptr %144, i32 0, i32 31
  %146 = load ptr, ptr %145, align 8
  %147 = icmp ne ptr %146, null
  br i1 %147, label %148, label %186

148:                                              ; preds = %143
  %149 = load ptr, ptr %3, align 8
  %150 = getelementptr inbounds %struct.Aig_Man_t_, ptr %149, i32 0, i32 31
  %151 = load ptr, ptr %150, align 8
  %152 = load i32, ptr %6, align 4
  %153 = sext i32 %152 to i64
  %154 = getelementptr inbounds ptr, ptr %151, i64 %153
  %155 = load ptr, ptr %154, align 8
  %156 = icmp ne ptr %155, null
  br i1 %156, label %157, label %186

157:                                              ; preds = %148
  %158 = load ptr, ptr %5, align 8
  %159 = getelementptr inbounds %struct.Aig_Obj_t_, ptr %158, i32 0, i32 3
  %160 = load i64, ptr %159, align 8
  %161 = lshr i64 %160, 6
  %162 = and i64 %161, 67108863
  %163 = trunc i64 %162 to i32
  %164 = icmp sgt i32 %163, 0
  br i1 %164, label %165, label %185

165:                                              ; preds = %157
  %166 = load ptr, ptr %5, align 8
  %167 = getelementptr inbounds %struct.Aig_Obj_t_, ptr %166, i32 0, i32 5
  %168 = load i32, ptr %167, align 4
  %169 = load ptr, ptr %3, align 8
  %170 = getelementptr inbounds %struct.Aig_Man_t_, ptr %169, i32 0, i32 31
  %171 = load ptr, ptr %170, align 8
  %172 = load i32, ptr %6, align 4
  %173 = sext i32 %172 to i64
  %174 = getelementptr inbounds ptr, ptr %171, i64 %173
  %175 = load ptr, ptr %174, align 8
  %176 = getelementptr inbounds %struct.Aig_Obj_t_, ptr %175, i32 0, i32 5
  %177 = load i32, ptr %176, align 4
  %178 = load ptr, ptr %5, align 8
  %179 = getelementptr inbounds %struct.Aig_Obj_t_, ptr %178, i32 0, i32 3
  %180 = load i64, ptr %179, align 8
  %181 = lshr i64 %180, 6
  %182 = and i64 %181, 67108863
  %183 = trunc i64 %182 to i32
  %184 = call i32 (ptr, ...) @printf(ptr noundef @.str.9, i32 noundef %168, i32 noundef %177, i32 noundef %183)
  store i32 1, ptr %7, align 4
  br label %185

185:                                              ; preds = %165, %157
  br label %186

186:                                              ; preds = %185, %148, %143
  br label %187

187:                                              ; preds = %186, %31
  br label %188

188:                                              ; preds = %187
  %189 = load i32, ptr %6, align 4
  %190 = add nsw i32 %189, 1
  store i32 %190, ptr %6, align 4
  br label %9, !llvm.loop !9

191:                                              ; preds = %22
  %192 = load ptr, ptr %3, align 8
  call void @Aig_ManCleanMarkA(ptr noundef %192)
  %193 = load i32, ptr %7, align 4
  %194 = icmp ne i32 %193, 0
  br i1 %194, label %197, label %195

195:                                              ; preds = %191
  %196 = call i32 (ptr, ...) @printf(ptr noundef @.str.10)
  br label %199

197:                                              ; preds = %191
  %198 = call i32 (ptr, ...) @printf(ptr noundef @.str.11)
  br label %199

199:                                              ; preds = %197, %195
  ret void
}