; Function Attrs: nounwind uwtable
define void @Dch_CheckChoices(ptr noundef %0, i32 noundef %1) local_unnamed_addr #1 {
  tail call void @Aig_ManCleanMarkA(ptr noundef %0) #11
  %3 = getelementptr inbounds nuw i8, ptr %0, i64 32
  %4 = load ptr, ptr %3, align 8
  %5 = getelementptr i8, ptr %4, i64 4
  %.val64 = load i32, ptr %5, align 4
  %6 = icmp sgt i32 %.val64, 0
  br i1 %6, label %.lr.ph, label %.critedge.thread

.critedge.thread:                                 ; preds = %2
  tail call void @Aig_ManCleanMarkA(ptr noundef nonnull %0) #11
  br label %94

.lr.ph:                                           ; preds = %2
  %7 = getelementptr inbounds nuw i8, ptr %0, i64 248
  %.not52 = icmp eq i32 %1, 0
  %8 = getelementptr inbounds nuw i8, ptr %0, i64 256
  br label %9

9:                                                ; preds = %.lr.ph, %88
  %indvars.iv = phi i64 [ 0, %.lr.ph ], [ %indvars.iv.next, %88 ]
  %10 = phi ptr [ %4, %.lr.ph ], [ %89, %88 ]
  %.066 = phi i32 [ 0, %.lr.ph ], [ %.5, %88 ]
  %11 = getelementptr i8, ptr %10, i64 8
  %.val59 = load ptr, ptr %11, align 8
  %12 = getelementptr inbounds nuw ptr, ptr %.val59, i64 %indvars.iv
  %13 = load ptr, ptr %12, align 8
  %14 = icmp eq ptr %13, null
  br i1 %14, label %88, label %15

15:                                               ; preds = %9
  %16 = getelementptr i8, ptr %13, i64 24
  %.val60 = load i64, ptr %16, align 8
  %17 = trunc i64 %.val60 to i32
  %18 = and i32 %17, 7
  %19 = add nsw i32 %18, -7
  %narrow.i = icmp ult i32 %19, -2
  br i1 %narrow.i, label %88, label %20

20:                                               ; preds = %15
  %21 = load ptr, ptr %7, align 8
  %22 = getelementptr inbounds nuw ptr, ptr %21, i64 %indvars.iv
  %23 = load ptr, ptr %22, align 8
  %.not50 = icmp eq ptr %23, null
  br i1 %.not50, label %72, label %24

24:                                               ; preds = %20
  %25 = and i64 %.val60, 16
  %.not51 = icmp eq i64 %25, 0
  br i1 %.not51, label %29, label %26

26:                                               ; preds = %24
  %27 = trunc nuw nsw i64 %indvars.iv to i32
  %28 = tail call i32 (ptr, ...) @printf(ptr noundef nonnull dereferenceable(1) @.str.5, i32 noundef %27)
  %.pre = load i64, ptr %16, align 8
  br label %29

29:                                               ; preds = %26, %24
  %30 = phi i64 [ %.pre, %26 ], [ %.val60, %24 ]
  %.2 = phi i32 [ 1, %26 ], [ %.066, %24 ]
  %31 = or i64 %30, 16
  store i64 %31, ptr %16, align 8
  br i1 %.not52, label %47, label %32

32:                                               ; preds = %29
  %33 = load ptr, ptr %7, align 8
  %34 = getelementptr inbounds nuw ptr, ptr %33, i64 %indvars.iv
  %35 = load ptr, ptr %34, align 8
  tail call void @Aig_ManIncrementTravId(ptr noundef nonnull %0) #11
  %36 = tail call i32 @Dch_ObjMarkTfi_rec(ptr noundef nonnull %0, ptr noundef %35)
  tail call void @Aig_ManIncrementTravId(ptr noundef nonnull %0) #11
  %37 = tail call i32 @Dch_ObjMarkTfi_rec(ptr noundef nonnull %0, ptr noundef nonnull %13)
  %.not.i = icmp eq i32 %37, 0
  br i1 %.not.i, label %Dch_ObjCheckSuppRed.exit, label %Dch_ObjCheckSuppRed.exit.thread

Dch_ObjCheckSuppRed.exit:                         ; preds = %32
  tail call void @Aig_ManIncrementTravId(ptr noundef nonnull %0) #11
  %38 = tail call i32 @Dch_ObjMarkTfi_rec(ptr noundef nonnull %0, ptr noundef %35)
  %.not53 = icmp eq i32 %38, 0
  br i1 %.not53, label %47, label %Dch_ObjCheckSuppRed.exit.thread

Dch_ObjCheckSuppRed.exit.thread:                  ; preds = %32, %Dch_ObjCheckSuppRed.exit
  %39 = getelementptr inbounds nuw i8, ptr %13, i64 36
  %40 = load i32, ptr %39, align 4
  %41 = load ptr, ptr %7, align 8
  %42 = getelementptr inbounds nuw ptr, ptr %41, i64 %indvars.iv
  %43 = load ptr, ptr %42, align 8
  %44 = getelementptr inbounds nuw i8, ptr %43, i64 36
  %45 = load i32, ptr %44, align 4
  %46 = tail call i32 (ptr, ...) @printf(ptr noundef nonnull dereferenceable(1) @.str.6, i32 noundef %40, i32 noundef %45)
  br label %47

47:                                               ; preds = %Dch_ObjCheckSuppRed.exit.thread, %Dch_ObjCheckSuppRed.exit, %29
  %48 = load ptr, ptr %7, align 8
  %49 = getelementptr inbounds nuw ptr, ptr %48, i64 %indvars.iv
  %50 = load ptr, ptr %49, align 8
  %51 = getelementptr i8, ptr %50, i64 36
  %.val61 = load i32, ptr %51, align 4
  %52 = sext i32 %.val61 to i64
  %53 = getelementptr inbounds ptr, ptr %48, i64 %52
  %54 = load ptr, ptr %53, align 8
  %55 = icmp eq ptr %54, null
  %56 = getelementptr inbounds nuw i8, ptr %50, i64 24
  %57 = load i64, ptr %56, align 8
  br i1 %55, label %58, label %._crit_edge

58:                                               ; preds = %47
  %59 = and i64 %57, 16
  %.not54 = icmp eq i64 %59, 0
  br i1 %.not54, label %63, label %60

60:                                               ; preds = %58
  %61 = trunc nuw nsw i64 %indvars.iv to i32
  %62 = tail call i32 (ptr, ...) @printf(ptr noundef nonnull dereferenceable(1) @.str.7, i32 noundef %61, i32 noundef %.val61)
  %.pre68 = load i64, ptr %56, align 8
  br label %63

63:                                               ; preds = %60, %58
  %64 = phi i64 [ %.pre68, %60 ], [ %57, %58 ]
  %.4 = phi i32 [ 1, %60 ], [ %.2, %58 ]
  %65 = or i64 %64, 16
  store i64 %65, ptr %56, align 8
  br label %._crit_edge

._crit_edge:                                      ; preds = %47, %63
  %66 = phi i64 [ %65, %63 ], [ %57, %47 ]
  %.3 = phi i32 [ %.4, %63 ], [ %.2, %47 ]
  %67 = trunc i64 %66 to i32
  %.not55 = icmp ult i32 %67, 64
  br i1 %.not55, label %72, label %68

68:                                               ; preds = %._crit_edge
  %69 = lshr i32 %67, 6
  %70 = load i32, ptr %51, align 4
  %71 = tail call i32 (ptr, ...) @printf(ptr noundef nonnull dereferenceable(1) @.str.8, i32 noundef %70, i32 noundef %69)
  br label %72

72:                                               ; preds = %._crit_edge, %68, %20
  %.042 = phi ptr [ %50, %68 ], [ %50, %._crit_edge ], [ %13, %20 ]
  %.1 = phi i32 [ %.3, %68 ], [ %.3, %._crit_edge ], [ %.066, %20 ]
  %73 = load ptr, ptr %8, align 8
  %.not56 = icmp eq ptr %73, null
  br i1 %.not56, label %88, label %74

74:                                               ; preds = %72
  %75 = getelementptr inbounds nuw ptr, ptr %73, i64 %indvars.iv
  %76 = load ptr, ptr %75, align 8
  %.not57 = icmp eq ptr %76, null
  br i1 %.not57, label %88, label %77

77:                                               ; preds = %74
  %78 = getelementptr inbounds nuw i8, ptr %.042, i64 24
  %79 = load i64, ptr %78, align 8
  %80 = trunc i64 %79 to i32
  %.not58 = icmp ult i32 %80, 64
  br i1 %.not58, label %88, label %81

81:                                               ; preds = %77
  %82 = lshr i32 %80, 6
  %83 = getelementptr inbounds nuw i8, ptr %.042, i64 36
  %84 = load i32, ptr %83, align 4
  %85 = getelementptr inbounds nuw i8, ptr %76, i64 36
  %86 = load i32, ptr %85, align 4
  %87 = tail call i32 (ptr, ...) @printf(ptr noundef nonnull dereferenceable(1) @.str.9, i32 noundef %84, i32 noundef %86, i32 noundef %82)
  br label %88

88:                                               ; preds = %15, %9, %77, %81, %74, %72
  %.5 = phi i32 [ %.066, %9 ], [ 1, %81 ], [ %.1, %77 ], [ %.1, %74 ], [ %.1, %72 ], [ %.066, %15 ]
  %indvars.iv.next = add nuw nsw i64 %indvars.iv, 1
  %89 = load ptr, ptr %3, align 8
  %90 = getelementptr i8, ptr %89, i64 4
  %.val = load i32, ptr %90, align 4
  %91 = sext i32 %.val to i64
  %92 = icmp slt i64 %indvars.iv.next, %91
  br i1 %92, label %9, label %.critedge, !llvm.loop !8

.critedge:                                        ; preds = %88
  %93 = icmp eq i32 %.5, 0
  tail call void @Aig_ManCleanMarkA(ptr noundef nonnull %0) #11
  %spec.select = select i1 %93, ptr @str.2, ptr @str.3
  br label %94

94:                                               ; preds = %.critedge, %.critedge.thread
  %str.3.sink = phi ptr [ @str.2, %.critedge.thread ], [ %spec.select, %.critedge ]
  %puts48 = tail call i32 @puts(ptr nonnull dereferenceable(1) %str.3.sink)
  ret void
}